(lp0
(lp1
F-0.20700400000004038
aF-0.20699799999999868
aF-0.2070009999999911
aF2.7930020000000013
aF-0.5391010000000023
aF-0.5391010000000023
aF-0.5391019999999997
aF-0.5391030000000114
aF-0.5391029999999972
aF-0.5390980000000098
aF2.4608980000000003
aF-0.5390979999999956
aF-0.5390930000000083
aF2.4609069999999917
aF-0.5390950000000032
aF-0.5390940000000057
aF-0.5391059999999754
aF-0.539104999999978
aF-0.5390930000000083
aF-0.5390950000000032
aF-0.5390940000000057
aF-0.5390929999999798
aF0.21176399999998807
aF0.5039999999999907
aF-0.4593930000000057
aF-0.4593969999999956
aF-0.459399000000019
aF-0.4593969999999956
aF-0.4593930000000057
aF-0.4593979999999931
aF-0.4593979999999931
aF-0.45939599999999814
aF-0.4593979999999931
aF2.540605999999997
aF-0.4593969999999956
aF-0.4593940000000032
aF-0.4593979999999931
aF-0.4593929999999773
aF-0.4594139999999811
aF-0.45941199999998616
aF2.540588000000014
aF-0.459412000000043
aF-0.45940899999999374
aF-0.45941100000004553
aF0.2900109999999927
aF-0.6044939999999883
aF2.3955100000000016
aF-0.6044939999999883
aF5.395475999999974
aF0.7158999999999764
aF0.9800999999999931
aF-0.26871099999999615
aF0.3950399999999945
aF3.481289000000004
aF2.374557999999979
aF-4.634188999999992
aF-4.634188999999992
aF-4.634188999999992
aF2.865811000000008
aF-0.7841000000000236
aF-2.6049600000000055
aF-2.2841000000000236
aF0.2300999999999931
aF-2.769900000000007
aF5.054453000000024
aF3.874557999999979
aF-6.034100000000024
aF-0.7787860000000251
aF-2.769900000000007
aF-3.1955469999999764
aF-0.19554699999997638
aF-2.019900000000007
aF1.8950399999999945
aF-4.634188999999992
aF-4.634188999999992
aF-4.634188999999992
aF0.6158110000000079
aF-10.656941000000018
aF-0.45706500000000005
aF-3.1955469999999764
aF-0.8648499999999899
aF2.480099999999993
aF1.3917190000000232
aF1.042935
aF-0.6254420000000209
aF-1.269900000000007
aF6.105435
aF-0.23400699999996277
aF-0.2340080000000171
aF2.578493999999978
aF-0.23401000000001204
aF-0.23400899999995772
aF-0.23400900000001457
aF-0.23400900000001457
aF2.578521999999907
aF-0.2340080000000171
aF-0.23401100000000952
aF-0.04099999999999682
aF-0.0410010000000085
aF-0.0410010000000085
aF-0.04099999999999682
aF-0.04099899999999934
aF0.013897999999997523
aF0.01389900000000921
aF3.3888979999999975
aF0.013902000000001635
aF0.01390099999998995
aF0.01390100000000416
aF0.013902000000001635
aF0.013900000000006685
aF0.013897000000014259
aF0.013896999999985837
aF0.01389900000000921
aF0.01390100000000416
aF0.01390299999999911
aF0.01389900000000921
aF0.013898000000011734
aF2.638500999999991
aF2.1239949999999794
aF2.124007000000006
aF2.124007000000006
aF2.1239909999999895
aF2.328000000000003
aF1.9139999999999873
aF-0.1419999999999959
aF-0.14200299999998833
aF3.6080029999999965
aF1.9999999949504854e-06
aF-2.999999992425728e-06
aF9.999999974752427e-07
aF-2.999999992425728e-06
aF1.9999999949504854e-06
aF-0.2459999999999809
aF-0.015287000000000717
aF-0.015289999999993142
aF-0.015292000000044936
aF-0.01528900000005251
aF-0.015291999999988093
aF-0.015291000000047461
aF-0.015287000000000717
aF-0.015291000000047461
aF-0.01528900000005251
aF-0.015288999999995667
aF-0.41999699999999507
aF-0.4199999999999875
aF-0.4200000000000159
aF-0.41999899999999
aF-0.4200000000000159
aF2.5800040000000024
aF-0.4200000000000159
aF-0.41999799999999254
aF-0.4199959999999976
aF2.5800000000000125
aF-0.4199999999999875
aF-0.41999799999999254
aF2.580005
aF-0.4199999999999875
aF-0.4199959999999976
aF-0.4199950000000001
aF-0.41999799999999254
aF-0.41999900000001844
aF-0.4200000000000159
aF-0.41999899999999
aF-0.4199999999999875
aF-0.41999800000002097
aF2.5800020000000075
aF-0.4200000000000159
aF2.5800170000000264
aF-0.42001499999997804
aF-0.4200129999999831
aF2.579989000000012
aF-0.42001399999998057
aF-0.42001099999998814
aF-0.4200150000000349
aF-0.42001399999998057
aF-0.42001099999998814
aF-0.4200150000000349
aF-0.42001499999997804
aF-0.4200150000000349
aF-0.420011000000045
aF-0.42001099999998814
aF2.5799859999999626
aF-0.42001399999998057
aF-0.42001399999998057
aF-0.4200150000000349
aF-0.42001499999997804
aF-0.42001099999998814
aF2.579984999999965
aF-0.42001399999998057
aF-0.42001099999998814
aF-0.420011000000045
aF-0.42001399999998057
aF-0.42001099999998814
aF-0.42001399999998057
aF2.5799859999999626
aF-0.42000999999999067
aF-0.4200140000000374
aF2.5799860000000194
aF-0.42001499999997804
aF-0.42001300000003994
aF-0.420011000000045
aF2.579985000000022
aF-0.4200150000000349
aF-0.42001399999998057
aF2.579989000000012
aF-0.42001499999997804
aF-0.42000999999999067
aF-0.4200119999999856
aF-0.42001399999998057
aF-0.4200150000000349
aF-0.4200100000000475
aF2.579989000000012
aF-0.42001099999998814
aF-0.42001099999998814
aF-0.420011000000045
aF-0.42001499999997804
aF-0.4200150000000349
aF-0.42001499999997804
aF-0.42001499999997804
aF2.579954999999984
aF-0.41998499999999694
aF2.5799859999999626
aF-0.4200109999999313
aF-0.419983000000002
aF2.580016999999998
aF-0.41998000000000957
aF-0.40290099999999995
aF-0.40290099999999995
aF-0.40290099999999995
aF-0.40290099999999995
aF-0.40289800000000753
aF-0.40289800000000753
aF-0.4028979999999933
aF-0.4029029999999807
aF-0.40289300000000594
aF-0.4028950000000009
aF-0.4028950000000009
aF-0.40289300000000594
aF2.5967740000000106
aF2.2919939999999883
aF2.292004999999989
aF2.291992999999991
aF1.5420059999999864
aF2.25
aF1.9139999999999873
aF0.1880040000000065
aF0.18799400000000333
aF0.18800100000001407
aF2.6593929999999943
aF-0.34060700000000566
aF-0.34060700000000566
aF2.6593959999999868
aF-0.34060400000004165
aF-0.34060699999997723
aF-0.34060699999997723
aF-0.3406039999999848
aF-0.3406039999999848
aF-0.34060800000003155
aF-0.34060400000004165
aF2.659392999999966
aF-0.3406079999999747
aF-0.3406070000000341
aF-0.340609000000029
aF-0.3406070000000341
aF-0.34060699999997723
aF-0.3406039999999848
aF2.659392999999966
aF-0.3406079999999747
aF-0.34060800000003155
aF-0.340609000000029
aF2.659396000000015
aF-0.3406070000000341
aF2.659394999999961
aF-0.34060400000004165
aF-0.3406089999999722
aF-0.3406039999999848
aF-0.34060800000003155
aF-0.340424999999982
aF0.5040000000000191
aF-0.33600000000001273
aF5.25
aF0.1379999999999768
aF-1.3620010000000207
aF2.5844129999999836
aF2.709015000000022
aF-0.29101300000002084
aF-0.29098499999997784
aF2.709015000000022
aF-0.2909869999999728
aF-0.2909859999999753
aF2.708986999999979
aF-0.2909869999999728
aF-0.2909850000000347
aF-0.2909869999999728
aF-0.29101300000002084
aF2.709013000000027
aF-0.2909850000000347
aF-0.29101300000002084
aF-0.2909859999999753
aF-0.29101300000002084
aF2.709015000000022
aF-0.29101300000002084
aF-0.2910149999999021
aF-0.2909859999999753
aF-0.29101700000001074
aF0.2767020000000002
aF1.0266100000000051
aF-0.18356300000000658
aF1.7649370000000033
aF2.0664369999999934
aF2.667999000000009
aF-0.33200100000001953
aF5.668001000000004
aF2.2919939999999883
aF2.292004999999989
aF2.291992999999991
aF1.5420059999999864
aF2.25
aF1.9139999999999873
aF0.1880040000000065
aF0.18799400000000333
aF3.188001000000014
aF-0.13400000000001455
aF-0.13399999999998613
aF0.03900099999999895
aF-0.7110019999999935
aF1.2479999999999905
aF0.5039999999999907
aF0.9120000000000061
aF2.7539999999999907
aF3.162000000000006
aF0.7680000000000007
aF8.997000000000014
aF0.75
aF0.49799999999999045
aF0.75
aF0.49799999999999045
aF-0.4410000000000025
aF3.0
aF2.412000000000006
aF-0.07800000000000296
aF6.4979999999999905
aF-0.2759980000000155
aF-0.2760009999999795
aF3.473998999999992
aF0.10960399999999026
aF0.8595839999999839
aF0.47546199999999317
aF0.8649500000000216
aF2.725461999999993
aF3.1149500000000216
aF-9.925692000000026
aF-1.2099000000000046
aF-3.202350000000024
aF-0.8704500000000053
aF2.4750000000000227
aF1.3839489999999728
aF1.0400999999999954
aF1.6149500000000216
aF1.0400999999999954
aF-0.0062899999999785905
aF0.74378999999999
aF1.7900999999999954
aF0.47546199999999317
aF0.8649500000000216
aF1.2254619999999932
aF-0.4418019999999956
aF-0.44180299999999306
aF2.5581999999999994
aF-0.44180299999999306
aF-0.44180000000000064
aF2.558203000000006
aF-0.44179600000001074
aF-0.44180299999999306
aF-0.44180399999999054
aF-0.44180399999999054
aF-0.44180000000000064
aF2.558195000000012
aF-0.44180299999999306
aF-0.44180000000000064
aF-0.44180399999999054
aF-0.44180299999999306
aF2.5581999999999994
aF-0.44180299999999306
aF2.558199000000002
aF-0.44180299999999306
aF-0.4418030000000215
aF-0.44180299999999306
aF-0.44180299999999306
aF-0.44180100000002653
aF-0.44180000000000064
aF-0.44180000000000064
aF-0.44180500000001643
aF-0.44180299999999306
aF-0.44180500000001643
aF-0.44180399999999054
aF-0.44178800000003093
aF2.559847999999988
aF2.291994000000045
aF2.2919899999999984
aF2.291992999999991
aF1.542020999999977
aF2.25
aF1.9139999999999873
aF0.18798900000001595
aF0.18799400000000333
aF3.1880160000000046
aF-0.41620000000000346
aF2.5837999999999965
aF-0.416199000000006
aF-0.41620100000000093
aF-0.416199000000006
aF-0.4161959999999567
aF2.583800999999994
aF-0.416199000000006
aF2.583800999999994
aF-0.41620100000000093
aF-0.416199000000006
aF2.5838040000000433
aF-0.41619600000001356
aF-0.416199000000006
aF-0.416199000000006
aF-0.41619700000001103
aF-0.4161959999999567
aF-0.41620000000000346
aF-0.41620000000000346
aF-0.41620100000000093
aF-0.416199000000006
aF96.550251
aF52.300251
aF26.800251000000003
aF10.36170199999998
aF40.463873999999976
aF-9.918419999999998
aF0.2911840000000012
aF-0.11830899999999644
aF0.9769500000000022
aF1.6197919999999897
aF1.791183999999987
aF-0.2722740000000101
aF1.6186830000000043
aF1.791183999999987
aF2.72772599999999
aF1.6186830000000043
aF0.11370600000000763
aF0.8637990000000002
aF-0.2722740000000101
aF0.8686830000000043
aF3.47772599999999
aF2.3686830000000043
aF-9.918419999999998
aF0.291183999999987
aF-0.11830900000001066
aF0.976949999999988
aF1.6197919999999897
aF1.791183999999987
aF-0.2722740000000101
aF1.6186830000000043
aF1.791183999999987
aF2.7277260000000183
aF2.368682999999976
aF-10.668420000000026
aF1.041183999999987
aF-0.8683090000000107
aF2.476949999999988
aF1.3869680000000244
aF1.041183999999987
aF1.618682999999976
aF1.041183999999987
aF-4.63829800000002
aF-4.63829800000002
aF2.8617019999999798
aF2.960550000000012
aF0.291183999999987
aF-0.11830900000001066
aF-1.273050000000012
aF-2.449748999999997
aF2.960550000000012
aF5.541183999999987
aF2.368682999999976
aF1.3869680000000244
aF2.541183999999987
aF-4.63829800000002
aF-4.63829800000002
aF1.3617019999999798
aF142.5
aF-0.2459999999999809
aF0.0
aF-0.43849699999999814
aF-0.4385000000000048
aF2.561501000000007
aF-0.43850100000000225
aF-0.4385000000000048
aF2.5615039999999993
aF-0.4385050000000206
aF-0.438492999999994
aF-0.43850499999999215
aF-0.438492999999994
aF-0.4390119999999911
aF0.5039999999999907
aF-0.5233000000000061
aF-0.5232980000000111
aF-0.5233000000000061
aF-0.5232979999999827
aF2.2892009999999914
aF-0.5232980000000111
aF-0.5233010000000036
aF-0.5232999999999777
aF-0.5233000000000061
aF-0.523302000000001
aF-0.523302000000001
aF-0.523302000000001
aF-0.5233000000000061
aF-0.5233010000000036
aF2.2891989999999964
aF-0.5232980000000111
aF-0.5233010000000036
aF2.2892009999999914
aF-0.523302000000001
aF-0.5232970000000137
aF-0.5233010000000036
aF-0.523302000000001
aF-0.5232869999999821
aF-0.5232869999999821
aF-0.5233119999999758
aF-0.5232869999999821
aF-0.523285000000044
aF3.0395500000000197
aF-0.3880020000000286
aF-0.3879999999999768
aF2.612002000000018
aF-0.3879999999999768
aF-0.38799799999998186
aF2.6119980000000282
aF-0.3872989999999845
aF-0.38729900000004136
aF-0.3872989999999845
aF-0.38730000000003884
aF-0.3872959999999921
aF2.6126989999999637
aF-0.3872989999999845
aF-0.3872959999999921
aF-0.387299999999982
aF-0.38729900000004136
aF2.6127050000000054
aF-0.3872959999999921
aF-0.38729699999998957
aF-0.3872959999999921
aF2.6127009999999586
aF-0.3872959999999921
aF-0.38729900000004136
aF4.112062999999978
aF3.3544239999999945
aF1.544349000000011
aF-0.8571499999999901
aF-0.053575000000023465
aF-0.10714999999999009
aF0.6964249999999765
aF0.6964249999999765
aF0.6964249999999765
aF0.6964249999999765
aF2.1964249999999765
aF3.103061000000025
aF-0.5819999999999936
aF1.804000000000002
aF0.09000000000000341
aF0.5039999999999907
aF-0.5879999999999939
aF1.804000000000002
aF2.7539999999999907
aF2.412000000000006
aF-0.07800000000000296
aF1.054000000000002
aF0.039001000000013164
aF-0.7110020000000077
aF1.054000000000002
aF0.5039999999999907
aF0.9120000000000061
aF2.0039999999999907
aF2.412000000000006
aF-10.584001
aF-0.44599999999999795
aF-3.169000000000011
aF-0.09299999999998931
aF2.5
aF-4.5
aF-0.07800000000000296
aF-4.5
aF0.30400000000000205
aF-1.3379999999999939
aF1.054000000000002
aF-2.695999999999998
aF-0.8429999999999893
aF-4.578000000000003
aF1.0
aF-6.0
aF-1.195999999999998
aF0.6690000000000111
aF0.25
aF-0.8310000000000173
aF4.803999999999974
aF3.1619999999999777
aF-0.07799999999997453
aF-6.0
aF1.0539999999999736
aF-2.0880000000000223
aF-0.4460000000000264
aF-1.1960000000000264
aF-2.3430000000000177
aF-3.0779999999999745
aF-0.5
aF-0.4460000000000264
aF-5.25
aF-1.4820000000000277
aF-3.5
aF1.0539999999999736
aF5.081000000000017
aF2.4119999999999777
aF-0.10800000000000409
aF-11.334001
aF-1.5930000000000177
aF-2.4189999999999827
aF1.0539999999999736
aF-0.09300000000001774
aF0.25
aF-4.608000000000004
aF-4.608000000000004
aF-4.608000000000004
aF2.141999999999996
aF-0.07799999999997453
aF-3.108000000000004
aF-1.5
aF-3.5880000000000223
aF-3.108000000000004
aF-0.5
aF-2.358000000000004
aF-0.8430000000000177
aF-4.5779999999999745
aF1.0
aF-6.0
aF1.0539999999999736
aF-3.7320000000000277
aF-0.2770060000000285
aF-0.27699400000000196
aF5.081000000000017
aF3.9119999999999777
aF-0.07799999999997453
aF-3.108000000000004
aF-2.25
aF-2.8380000000000223
aF-0.10800000000000409
aF-1.608000000000004
aF-1.5930000000000177
aF-3.8279999999999745
aF0.25
aF-1.1960000000000264
aF-4.5
aF-2.2320000000000277
aF-3.108000000000004
aF0.25
aF3.5810000000000173
aF-4.608000000000004
aF-4.608000000000004
aF-4.608000000000004
aF64.392
aF-0.2459999999999809
aF0.0
aF-0.3327009999999859
aF-0.3327030000000093
aF-0.33269999999998845
aF-0.3327049999999758
aF-0.3327030000000093
aF2.6672969999999907
aF-0.3327030000000093
aF-0.3327029999999809
aF-0.3327030000000093
aF-0.3327030000000093
aF-0.3327029999999809
aF-0.3327030000000093
aF2.667299999999983
aF-0.33270400000000677
aF-0.3327029999999809
aF-0.33269999999998845
aF2.6672959999999932
aF-0.3320600000000127
aF0.0
aF2.6242999999999768
aF-0.3756999999999948
aF-0.3756999999999948
aF2.6242970000000128
aF-0.37570199999998977
aF2.6243010000000027
aF-0.37570299999998724
aF-0.37570199999998977
aF-0.37570299999998724
aF-0.37570199999998977
aF-0.37569899999999734
aF2.6242980000000102
aF-0.37569899999999734
aF-0.3757020000000466
aF2.6242980000000102
aF-0.37570199999998977
aF-0.3756990000000542
aF-0.37570199999998977
aF-0.37570299999998724
aF-0.3757039999999847
aF2.6243010000000027
aF-0.37570299999998724
aF-0.3757039999999847
aF2.6242970000000128
aF-0.37570199999998977
aF-0.3757020000000466
aF-0.37570299999998724
aF-0.3757039999999847
aF-0.3757039999999847
aF-0.3756990000000542
aF2.6242960000000153
aF-0.3756999999999948
aF-0.3756999999999948
aF-0.3756999999999948
aF-0.3757030000000441
aF-0.37570199999998977
aF-0.37569899999999734
aF2.6242960000000153
aF-0.37570000000005166
aF-0.37569899999999734
aF-0.37570400000004156
aF2.624300000000005
aF-0.37570299999998724
aF0.37515500000000657
aF-0.15099799999995867
aF-0.15100199999994857
aF-0.15100100000000793
aF2.849000999999987
aF-0.1509980000000155
aF4.348997999999995
aF0.9986870000000181
aF1.5591999999999757
aF2.5844730000000027
aF-0.4154959999999619
aF-0.4155279999999948
aF-0.4155240000000049
aF2.584472000000005
aF-0.41552899999999227
aF-0.4155279999999948
aF-0.33779900000000396
aF-0.33779899999998975
aF-0.3378009999999989
aF-0.33780000000000143
aF-0.3378009999999989
aF-0.33779600000001153
aF2.6621999999999844
aF-0.3377969999999948
aF-0.3377969999999948
aF-0.3377969999999948
aF-0.33779600000002574
aF-0.3377999999999872
aF2.6621999999999844
aF-0.3377969999999948
aF-0.3377999999999872
aF-0.3377959999999973
aF-0.3377969999999948
aF-0.33779900000001817
aF2.6622040000000027
aF-0.3377969999999948
aF-0.33779900000001817
aF2.662203000000005
aF-0.3377959999999973
aF-0.3378009999999847
aF-0.3377970000000232
aF-0.3378009999999847
aF2.662748999999991
aF-0.33600000000001273
aF6.0
aF0.07894999999999186
aF1.2809149999999931
aF0.5565799999999967
aF0.9986870000000181
aF1.5591999999999757
aF1.3065799999999967
aF2.332000999999991
aF-0.6680010000000038
aF0.6749999999999972
aF1.0296749999999975
aF0.4540499999999952
aF5.329649999999987
aF3.454049999999995
aF3.8296499999999867
aF-0.6736500000000092
aF0.27967499999999745
aF-0.14459999999999695
aF4.0296749999999975
aF3.0796499999999867
aF-0.14459999999999695
aF-1.2203250000000025
aF0.6398619999999937
aF0.20625000000001137
aF0.6398619999999937
aF6.076349999999991
aF7.425000000000011
aF1.2539999999999907
aF3.4661250000000052
aF1.0149370000000033
aF-0.65625
aF0.046875
aF0.09375
aF0.046905999999978576
aF0.046905000000037944
aF0.046905999999978576
aF0.0469049999999811
aF1.5467530000000238
aF3.371061999999995
aF-0.3131999999999948
aF-0.313202000000004
aF-0.31319900000001155
aF-0.313200000000009
aF4.936801000000003
aF3.1680000000000064
aF3.162000000000006
aF-12.084001
aF-0.10800000000000409
aF-3.169000000000011
aF-0.09299999999998931
aF2.5
aF-1.5
aF-3.078000000000003
aF-2.358000000000004
aF-1.25
aF-2.358000000000004
aF-0.09299999999998931
aF-6.587999999999994
aF0.25
aF-4.5
aF-2.75
aF1.391999999999996
aF-1.608000000000004
aF7.0
aF-0.5259980000000155
aF-0.5260009999999795
aF6.223998999999992
aF-1.3319999999999936
aF4.804000000000002
aF3.912000000000006
aF-4.578000000000003
aF-1.5
aF0.30400000000000205
aF-1.195999999999998
aF-5.838000000000022
aF-2.75
aF-0.09299999999998931
aF-2.75
aF-2.75
aF0.3039999999999736
aF-5.25
aF-2.9820000000000277
aF0.3039999999999736
aF-1.25
aF-3.1689999999999827
aF5.5
aF2.4119999999999777
aF-0.8580000000000041
aF-11.334001
aF-1.5930000000000177
aF-2.4189999999999827
aF0.3039999999999736
aF-0.8430000000000177
aF-0.5
aF-4.608000000000004
aF-4.608000000000004
aF-4.608000000000004
aF2.141999999999996
aF-6.732000000000028
aF0.75
aF-1.608000000000004
aF-4.668999999999983
aF0.25
aF-3.75
aF-0.8279999999999745
aF-2.358000000000004
aF-2.358000000000004
aF-1.25
aF-2.3430000000000177
aF-4.338000000000022
aF0.25
aF-3.5
aF-2.75
aF5.141999999999996
aF3.9119999999999777
aF-6.732000000000028
aF0.75
aF-2.358000000000004
aF-2.75
aF-2.4189999999999827
aF-0.8430000000000177
aF-2.75
aF-2.3279999999999745
aF-3.75
aF1.391999999999996
aF-3.108000000000004
aF-5.088000000000022
aF0.25
aF-2.75
aF-2.75
aF3.641999999999996
aF-4.608000000000004
aF-4.608000000000004
aF-4.608000000000004
aF116.142
aF-0.2459999999999809
aF0.0
aF-0.37350399999999695
aF-0.3734970000000004
aF2.626497999999998
aF-0.373502000000002
aF-0.37349899999999536
aF-0.373502000000002
aF-0.3735059999999919
aF-0.3734900000000039
aF0.5039999999999907
aF1.5389999999999873
aF-0.6100010000000111
aF-0.6100019999999802
aF-0.6099979999999903
aF-0.6099990000000162
aF-0.6100009999999827
aF3.514998999999989
aF-0.1260069999999871
aF-0.12600700000001552
aF-0.12599299999999403
aF-0.12599299999999403
aF0.5039999999999907
aF-0.48359800000000064
aF-0.4835949999999798
aF-0.4835939999999823
aF-0.48359800000000064
aF-0.48359800000000064
aF-0.48359800000000064
aF-0.4835989999999981
aF-0.48359900000002654
aF-0.48359699999997474
aF2.51637199999999
aF0.1639989999999898
aF0.16400199999998222
aF3.16399899999999
aF-0.4079910000000382
aF2.592010000000016
aF-0.40798999999998387
aF-0.40798699999999144
aF-0.4079879999999889
aF-0.4079919999999788
aF-0.4079900000000407
aF-0.40798699999999144
aF2.592010000000016
aF-0.40798699999999144
aF5.591886999999986
aF-0.07499999999998863
aF1.7796749999999975
aF-0.2959500000000048
aF0.8296500000000151
aF0.9562500000000114
aF2.704049999999995
aF2.329650000000015
aF-0.14460000000002537
aF1.0296749999999975
aF-0.040210000000001855
aF-0.7901899999999955
aF1.7796749999999975
aF0.4540499999999952
aF0.0796500000000151
aF0.9562500000000114
aF4.954049999999995
aF-0.4894069999999715
aF-0.48941100000001825
aF2.510590000000036
aF-0.4894119999999589
aF-0.48941100000001825
aF2.510592000000031
aF-0.4894100000000208
aF-0.4894109999999614
aF-0.4894119999999589
aF-0.4894119999999589
aF-0.4894120000000157
aF-0.489407999999969
aF2.5105879999999843
aF-0.489407999999969
aF-0.48941100000001825
aF2.5105889999999818
aF-0.4894120000000157
aF-0.4894100000000208
aF-0.4893769999999904
aF-0.4893769999999904
aF-0.48937999999998283
aF-0.4893809999999803
aF-0.4893819999999778
aF-0.4893809999999803
aF0.2616600000000062
aF-0.41560100000000944
aF-0.41560400000000186
aF-0.4155980000000028
aF-0.41559599999999364
aF-0.4156009999999952
aF-0.4155979999999886
aF-0.4155970000000053
aF-0.41560400000000186
aF-0.41560499999999934
aF2.5843989999999906
aF-0.4156059999999968
aF-0.4156030000000044
aF2.5843969999999956
aF-0.41560400000000186
aF-0.4156020000000069
aF-0.41560600000002523
aF-0.41559999999998354
aF-0.4156059999999968
aF-0.41560400000000186
aF2.584395999999998
aF-0.41560400000000186
aF-0.41560100000000944
aF-0.41560399999997344
aF-0.41560100000000944
aF-0.41560499999999934
aF2.584399000000019
aF-0.4156019999999785
aF-0.41560400000000186
aF2.5843980000000215
aF-0.4155410000000188
aF0.0
aF2.681002000000035
aF-0.31900199999995493
aF2.6809989999999857
aF-0.31899799999996503
aF-0.3190000000000168
aF-0.3190020000000118
aF2.6809979999999882
aF-0.3190000000000168
aF-0.31899999999996
aF-0.3190010000000143
aF-0.3190010000000143
aF0.07895000000000607
aF-1.1703959999999967
aF1.046049999999994
aF-0.19342000000000326
aF1.2078960000000052
aF2.8065799999999967
aF3.9986869999999897
aF-0.48552399999999807
aF0.32960399999998913
aF2.707896000000005
aF1.7486869999999897
aF4.065799999999996
aF1.8157999999999959
aF-0.3887990000000059
aF1.861171000000013
aF316.04605000000004
aF-0.2459999999999809
aF0.0
aa(lp2
cnumpy.core.multiarray
scalar
p3
(cnumpy
dtype
p4
(S'f8'
p5
I0
I1
tp6
Rp7
(I3
S'<'
p8
NNNI-1
I-1
I0
tp9
bS'\x00\xc3\x0f\xce\xa7v-@'
p10
tp11
Rp12
ag3
(g7
S'\xc0M)\xaf\x95p5@'
p13
tp14
Rp15
ag3
(g7
S' \xa5\x83\xf5\x7f\xb28@'
p16
tp17
Rp18
ag3
(g7
S'\xc0R@\xda\xffH$@'
p19
tp20
Rp21
ag3
(g7
S'@\xa5\x83\xf5\x7f\x123@'
p22
tp23
Rp24
ag3
(g7
S'\x00\x97\x00\xfcS\xd64@'
p25
tp26
Rp27
ag3
(g7
S'`]\x87jJN5@'
p28
tp29
Rp30
ag3
(g7
S'\xc0\xfa?\x87\xf9\xca*@'
p31
tp32
Rp33
ag3
(g7
S' \x05\x16\xc0\x94\xf1%@'
p34
tp35
Rp36
ag3
(g7
S'\x80S\x91\nc\xab\x12\xc0'
p37
tp38
Rp39
ag3
(g7
S'\xc0a\x13\x99\xb9\xe0+@'
p40
tp41
Rp42
ag3
(g7
S"\xa0\xce\xa3\xe2\xff\x96'@"
p43
tp44
Rp45
ag3
(g7
S'\x00\x85\xd0A\x978*@'
p46
tp47
Rp48
ag3
(g7
S'\xa0\xc6\x84\x98K~4@'
p49
tp50
Rp51
ag3
(g7
S'0\xb7BX\x8d\xb93@'
p52
tp53
Rp54
ag3
(g7
S'\x00\x92\xed|?\xf5\xf5\xbf'
p55
tp56
Rp57
ag3
(g7
S'\x00\xe2\x91xy\x9a)@'
p58
tp59
Rp60
ag3
(g7
S'@/\xbf\xd3d\xb6)@'
p61
tp62
Rp63
ag3
(g7
S'\x00$`ty+,@'
p64
tp65
Rp66
ag3
(g7
S'\xc0\xa4M\xd5=:%@'
p67
tp68
Rp69
aa.