ccopy_reg
_reconstructor
p0
(cpdfminer.layout
LTChar
p1
c__builtin__
object
p2
Ntp3
Rp4
(dp5
S'adv'
p6
F13.3935812
sS'fontname'
p7
S'FGPLEU+NimbusRomNo9L-Medi'
p8
sS'matrix'
p9
(I1
I0
I0
I1
F134.912
F678.953
tp10
sS'width'
p11
F13.3935812
sS'height'
p12
F22.3972354
sS'y1'
p13
F697.7522167999999
sS'bbox'
p14
(F134.912
F675.3549813999999
F148.3055812
F697.7522167999999
tp15
sS'_text'
p16
VH
p17
sS'upright'
p18
I01
sS'y0'
p19
F675.3549813999999
sS'x0'
p20
F134.912
sS'x1'
p21
F148.3055812
sS'size'
p22
F22.3972354
sb.